target datalayout = "e-m:e-p270:32:32-p271:32:32-p272:64:64-i64:64-i128:128-f80:128-n8:16:32:64-S128"
target triple = "x86_64-pc-linux-gnu"

%class.RawRead = type { %class.Array, ptr, i64, i64, ptr }
%class.Array = type { ptr, i64, i64, i64 }

; Function Attrs: inlinehint mustprogress nounwind uwtable
define linkonce_odr noundef nonnull align 1 dereferenceable(1) ptr @_ZNK5ArrayIhEixEm(ptr noundef nonnull align 8 dereferenceable(32) %0, i64 noundef %1) #3 comdat align 2 {
  %3 = alloca ptr, align 8
  %4 = alloca i64, align 8
  store ptr %0, ptr %3, align 8, !tbaa !15
  store i64 %1, ptr %4, align 8, !tbaa !23
  %5 = load ptr, ptr %3, align 8
  %6 = getelementptr inbounds nuw %class.Array, ptr %5, i32 0, i32 0
  %7 = load ptr, ptr %6, align 8, !tbaa !20
  %8 = load i64, ptr %4, align 8, !tbaa !23
  %9 = getelementptr inbounds nuw i8, ptr %7, i64 %8
  ret ptr %9
}

; Function Attrs: mustprogress uwtable
define void @_ZN7RawRead4GetWEPwm(ptr noundef nonnull align 8 dereferenceable(64) %0, ptr noundef %1, i64 noundef %2) #0 align 2 {
  %4 = alloca ptr, align 8
  %5 = alloca ptr, align 8
  %6 = alloca i64, align 8
  store ptr %0, ptr %4, align 8, !tbaa !3
  store ptr %1, ptr %5, align 8, !tbaa !38
  store i64 %2, ptr %6, align 8, !tbaa !23
  %7 = load ptr, ptr %4, align 8
  %8 = getelementptr inbounds nuw %class.RawRead, ptr %7, i32 0, i32 3
  %9 = load i64, ptr %8, align 8, !tbaa !17
  %10 = load i64, ptr %6, align 8, !tbaa !23
  %11 = mul i64 2, %10
  %12 = add i64 %9, %11
  %13 = sub i64 %12, 1
  %14 = getelementptr inbounds nuw %class.RawRead, ptr %7, i32 0, i32 2
  %15 = load i64, ptr %14, align 8, !tbaa !18
  %16 = icmp ult i64 %13, %15
  br i1 %16, label %17, label %30

17:                                               ; preds = %3
  %18 = getelementptr inbounds nuw %class.RawRead, ptr %7, i32 0, i32 0
  %19 = getelementptr inbounds nuw %class.RawRead, ptr %7, i32 0, i32 3
  %20 = load i64, ptr %19, align 8, !tbaa !17
  %21 = call noundef nonnull align 1 dereferenceable(1) ptr @_ZNK5ArrayIhEixEm(ptr noundef nonnull align 8 dereferenceable(32) %18, i64 noundef %20)
  %22 = load ptr, ptr %5, align 8, !tbaa !38
  %23 = load i64, ptr %6, align 8, !tbaa !23
  %24 = call noundef ptr @_Z9RawToWidePKhPwm(ptr noundef %21, ptr noundef %22, i64 noundef %23)
  %25 = load i64, ptr %6, align 8, !tbaa !23
  %26 = mul i64 4, %25
  %27 = getelementptr inbounds nuw %class.RawRead, ptr %7, i32 0, i32 3
  %28 = load i64, ptr %27, align 8, !tbaa !17
  %29 = add i64 %28, %26
  store i64 %29, ptr %27, align 8, !tbaa !17
  br label %34

30:                                               ; preds = %3
  %31 = load ptr, ptr %5, align 8, !tbaa !38
  %32 = load i64, ptr %6, align 8, !tbaa !23
  %33 = mul i64 4, %32
  call void @llvm.memset.p0.i64(ptr align 4 %31, i8 0, i64 %33, i1 false)
  br label %34

34:                                               ; preds = %30, %17
  ret void
}