; Function Attrs: mustprogress uwtable
define void @_ZN7RawRead4GetWEPwm(ptr noundef nonnull align 8 captures(none) dereferenceable(64) %0, ptr noundef %1, i64 noundef %2) local_unnamed_addr #1 align 2 {
  %4 = getelementptr inbounds nuw i8, ptr %0, i64 48
  %5 = load i64, ptr %4, align 8, !tbaa !21
  %6 = shl i64 %2, 1
  %7 = add i64 %6, -1
  %8 = add i64 %7, %5
  %9 = getelementptr inbounds nuw i8, ptr %0, i64 40
  %10 = load i64, ptr %9, align 8, !tbaa !15
  %11 = icmp ult i64 %8, %10
  br i1 %11, label %12, label %19

12:                                               ; preds = %3
  %13 = load ptr, ptr %0, align 8, !tbaa !17
  %14 = getelementptr inbounds nuw i8, ptr %13, i64 %5
  %15 = tail call noundef ptr @_Z9RawToWidePKhPwm(ptr noundef nonnull %14, ptr noundef %1, i64 noundef %2)
  %16 = shl i64 %2, 2
  %17 = load i64, ptr %4, align 8, !tbaa !21
  %18 = add i64 %17, %16
  store i64 %18, ptr %4, align 8, !tbaa !21
  br label %21

19:                                               ; preds = %3
  %20 = shl i64 %2, 2
  tail call void @llvm.memset.p0.i64(ptr align 4 %1, i8 0, i64 %20, i1 false)
  br label %21

21:                                               ; preds = %19, %12
  ret void
}